((lp0
(F409.0
F46.0
tp1
a(F514.0
F52.0
tp2
a(F444.0
F356.0
tp3
a(F283.0
F319.0
tp4
a(F396.0
F352.0
tp5
a(F307.0
F121.0
tp6
a(F195.0
F96.0
tp7
a(F147.0
F224.0
tp8
a(F142.0
F132.0
tp9
a(F454.0
F193.0
tp10
a(F345.0
F192.0
tp11
a(F402.0
F166.0
tp12
a(lp13
(F410.0
F51.0
tp14
a(F515.0
F51.0
tp15
a(F444.0
F353.0
tp16
a(F282.0
F322.0
tp17
a(F394.0
F354.0
tp18
a(F304.0
F123.0
tp19
a(F193.0
F96.0
tp20
a(F144.0
F224.0
tp21
a(F141.0
F133.0
tp22
a(F452.0
F195.0
tp23
a(F344.0
F195.0
tp24
a(F402.0
F166.0
tp25
atp26
.